; Function Attrs: inlinehint mustprogress nounwind uwtable
define internal void @_ZN7jsonnet8internal12_GLOBAL__N_110HeapStringD0Ev(ptr noundef nonnull align 8 dereferenceable(48) initializes((0, 8)) %0) unnamed_addr #17 align 2 personality ptr @__gxx_personality_v0 {
  store ptr getelementptr inbounds nuw inrange(-16, 16) (i8, ptr @_ZTVN7jsonnet8internal12_GLOBAL__N_110HeapStringE, i64 16), ptr %0, align 8, !tbaa !43
  %2 = getelementptr inbounds nuw i8, ptr %0, i64 16
  %3 = load ptr, ptr %2, align 8, !tbaa !23
  %4 = getelementptr inbounds nuw i8, ptr %0, i64 32
  %5 = icmp eq ptr %3, %4
  br i1 %5, label %_ZNKSt7__cxx1112basic_stringIDiSt11char_traitsIDiESaIDiEE11_M_is_localEv.exit.thread.i.i.i, label %_ZNKSt7__cxx1112basic_stringIDiSt11char_traitsIDiESaIDiEE11_M_is_localEv.exit.i.i.i

_ZNKSt7__cxx1112basic_stringIDiSt11char_traitsIDiESaIDiEE11_M_is_localEv.exit.thread.i.i.i: ; preds = %1
  %6 = getelementptr inbounds nuw i8, ptr %0, i64 24
  %7 = load i64, ptr %6, align 8, !tbaa !27
  %8 = icmp ult i64 %7, 4
  tail call void @llvm.assume(i1 %8)
  br label %_ZN7jsonnet8internal12_GLOBAL__N_110HeapStringD2Ev.exit

_ZNKSt7__cxx1112basic_stringIDiSt11char_traitsIDiESaIDiEE11_M_is_localEv.exit.i.i.i: ; preds = %1
  %9 = load i64, ptr %4, align 8, !tbaa !21
  %10 = shl i64 %9, 2
  %11 = add i64 %10, 4
  tail call void @_ZdlPvm(ptr noundef %3, i64 noundef %11) #39
  br label %_ZN7jsonnet8internal12_GLOBAL__N_110HeapStringD2Ev.exit

_ZN7jsonnet8internal12_GLOBAL__N_110HeapStringD2Ev.exit: ; preds = %_ZNKSt7__cxx1112basic_stringIDiSt11char_traitsIDiESaIDiEE11_M_is_localEv.exit.thread.i.i.i, %_ZNKSt7__cxx1112basic_stringIDiSt11char_traitsIDiESaIDiEE11_M_is_localEv.exit.i.i.i
  tail call void @_ZdlPvm(ptr noundef nonnull %0, i64 noundef 48) #39
  ret void
}